; Function Attrs: mustprogress nounwind uwtable
define hidden noundef zeroext i1 @_ZN15G1CollectedHeap22abort_concurrent_cycleEv(ptr nocapture noundef nonnull readonly align 8 dereferenceable(1488) %0) local_unnamed_addr #0 align 2 {
  %2 = getelementptr inbounds i8, ptr %0, i64 1392
  %3 = load ptr, ptr %2, align 8
  %4 = getelementptr inbounds i8, ptr %3, i64 16
  store i8 0, ptr %4, align 8
  %5 = load ptr, ptr %2, align 8
  tail call void @_ZN18ReferenceProcessor25abandon_partial_discoveryEv(ptr noundef nonnull align 8 dereferenceable(88) %5) #23
  %6 = getelementptr inbounds i8, ptr %0, i64 1320
  %7 = load ptr, ptr %6, align 8
  %8 = tail call noundef zeroext i1 @_ZN16G1ConcurrentMark22concurrent_cycle_abortEv(ptr noundef nonnull align 8 dereferenceable(1849) %7) #23
  ret i1 %8
}